target datalayout = "e-m:e-p270:32:32-p271:32:32-p272:64:64-i64:64-i128:128-f80:128-n8:16:32:64-S128"
target triple = "x86_64-pc-linux-gnu"

%struct.AVFilterContext = type { ptr, ptr, ptr, ptr, ptr, i32, ptr, ptr, i32, ptr, ptr, i32, i32, ptr, ptr, ptr, ptr, i32, ptr, i32, i32 }
%struct.FieldHintContext = type { ptr, ptr, ptr, i32, [3 x ptr], i64, i32, i32, [4 x i32], [4 x i32] }
%struct.AVFilterLink = type { ptr, ptr, ptr, ptr, i32, i32, i32, i32, %struct.AVRational, i32, i32, i32, %struct.AVChannelLayout, %struct.AVRational, ptr, i32, %struct.AVFilterFormatsConfig, %struct.AVFilterFormatsConfig }
%struct.AVChannelLayout = type { i32, i32, %union.anon.1, ptr }
%union.anon.1 = type { i64 }
%struct.AVRational = type { i32, i32 }
%struct.AVFilterFormatsConfig = type { ptr, ptr, ptr, ptr, ptr }

; Function Attrs: nounwind uwtable
define internal i32 @request_frame(ptr noundef %0) #1 {
  %2 = alloca i32, align 4
  %3 = alloca ptr, align 8
  %4 = alloca ptr, align 8
  %5 = alloca ptr, align 8
  %6 = alloca i32, align 4
  %7 = alloca i32, align 4
  %8 = alloca ptr, align 8
  store ptr %0, ptr %3, align 8, !tbaa !32
  call void @llvm.lifetime.start.p0(i64 8, ptr %4) #10
  %9 = load ptr, ptr %3, align 8, !tbaa !32
  %10 = getelementptr inbounds nuw %struct.AVFilterLink, ptr %9, i32 0, i32 0
  %11 = load ptr, ptr %10, align 8, !tbaa !70
  store ptr %11, ptr %4, align 8, !tbaa !4
  call void @llvm.lifetime.start.p0(i64 8, ptr %5) #10
  %12 = load ptr, ptr %4, align 8, !tbaa !4
  %13 = getelementptr inbounds nuw %struct.AVFilterContext, ptr %12, i32 0, i32 9
  %14 = load ptr, ptr %13, align 8, !tbaa !9
  store ptr %14, ptr %5, align 8, !tbaa !22
  call void @llvm.lifetime.start.p0(i64 4, ptr %6) #10
  %15 = load ptr, ptr %5, align 8, !tbaa !22
  %16 = getelementptr inbounds nuw %struct.FieldHintContext, ptr %15, i32 0, i32 7
  %17 = load i32, ptr %16, align 4, !tbaa !71
  %18 = icmp ne i32 %17, 0
  br i1 %18, label %19, label %20

19:                                               ; preds = %1
  store i32 -541478725, ptr %2, align 4
  store i32 1, ptr %7, align 4
  br label %59

20:                                               ; preds = %1
  %21 = load ptr, ptr %4, align 8, !tbaa !4
  %22 = getelementptr inbounds nuw %struct.AVFilterContext, ptr %21, i32 0, i32 4
  %23 = load ptr, ptr %22, align 8, !tbaa !72
  %24 = getelementptr inbounds ptr, ptr %23, i64 0
  %25 = load ptr, ptr %24, align 8, !tbaa !32
  %26 = call i32 @ff_request_frame(ptr noundef %25)
  store i32 %26, ptr %6, align 4, !tbaa !29
  %27 = load i32, ptr %6, align 4, !tbaa !29
  %28 = icmp eq i32 %27, -541478725
  br i1 %28, label %29, label %57

29:                                               ; preds = %20
  %30 = load ptr, ptr %5, align 8, !tbaa !22
  %31 = getelementptr inbounds nuw %struct.FieldHintContext, ptr %30, i32 0, i32 4
  %32 = getelementptr inbounds [3 x ptr], ptr %31, i64 0, i64 2
  %33 = load ptr, ptr %32, align 8, !tbaa !34
  %34 = icmp ne ptr %33, null
  br i1 %34, label %35, label %57

35:                                               ; preds = %29
  call void @llvm.lifetime.start.p0(i64 8, ptr %8) #10
  %36 = load ptr, ptr %5, align 8, !tbaa !22
  %37 = getelementptr inbounds nuw %struct.FieldHintContext, ptr %36, i32 0, i32 4
  %38 = getelementptr inbounds [3 x ptr], ptr %37, i64 0, i64 2
  %39 = load ptr, ptr %38, align 8, !tbaa !34
  %40 = call ptr @av_frame_clone(ptr noundef %39)
  store ptr %40, ptr %8, align 8, !tbaa !34
  %41 = load ptr, ptr %8, align 8, !tbaa !34
  %42 = icmp ne ptr %41, null
  br i1 %42, label %44, label %43

43:                                               ; preds = %35
  store i32 -12, ptr %2, align 4
  store i32 1, ptr %7, align 4
  br label %54

44:                                               ; preds = %35
  %45 = load ptr, ptr %4, align 8, !tbaa !4
  %46 = getelementptr inbounds nuw %struct.AVFilterContext, ptr %45, i32 0, i32 4
  %47 = load ptr, ptr %46, align 8, !tbaa !72
  %48 = getelementptr inbounds ptr, ptr %47, i64 0
  %49 = load ptr, ptr %48, align 8, !tbaa !32
  %50 = load ptr, ptr %8, align 8, !tbaa !34
  %51 = call i32 @filter_frame(ptr noundef %49, ptr noundef %50)
  store i32 %51, ptr %6, align 4, !tbaa !29
  %52 = load ptr, ptr %5, align 8, !tbaa !22
  %53 = getelementptr inbounds nuw %struct.FieldHintContext, ptr %52, i32 0, i32 7
  store i32 1, ptr %53, align 4, !tbaa !71
  store i32 0, ptr %7, align 4
  br label %54

54:                                               ; preds = %44, %43
  call void @llvm.lifetime.end.p0(i64 8, ptr %8) #10
  %55 = load i32, ptr %7, align 4
  switch i32 %55, label %59 [
    i32 0, label %56
  ]

56:                                               ; preds = %54
  br label %57

57:                                               ; preds = %56, %29, %20
  %58 = load i32, ptr %6, align 4, !tbaa !29
  store i32 %58, ptr %2, align 4
  store i32 1, ptr %7, align 4
  br label %59

59:                                               ; preds = %57, %54, %19
  call void @llvm.lifetime.end.p0(i64 4, ptr %6) #10
  call void @llvm.lifetime.end.p0(i64 8, ptr %5) #10
  call void @llvm.lifetime.end.p0(i64 8, ptr %4) #10
  %60 = load i32, ptr %2, align 4
  ret i32 %60
}