; Function Attrs: nounwind uwtable
define internal i32 @request_frame(ptr noundef readonly captures(none) %0) #1 {
  %2 = load ptr, ptr %0, align 8, !tbaa !61
  %3 = getelementptr inbounds nuw i8, ptr %2, i64 72
  %4 = load ptr, ptr %3, align 8, !tbaa !4
  %5 = getelementptr inbounds nuw i8, ptr %4, i64 68
  %6 = load i32, ptr %5, align 4, !tbaa !62
  %.not = icmp eq i32 %6, 0
  br i1 %.not, label %7, label %22

7:                                                ; preds = %1
  %8 = getelementptr inbounds nuw i8, ptr %2, i64 32
  %9 = load ptr, ptr %8, align 8, !tbaa !63
  %10 = load ptr, ptr %9, align 8, !tbaa !36
  %11 = tail call i32 @ff_request_frame(ptr noundef %10) #9
  %12 = icmp eq i32 %11, -541478725
  br i1 %12, label %13, label %22

13:                                               ; preds = %7
  %14 = getelementptr inbounds nuw i8, ptr %4, i64 48
  %15 = load ptr, ptr %14, align 8, !tbaa !39
  %.not19 = icmp eq ptr %15, null
  br i1 %.not19, label %22, label %16

16:                                               ; preds = %13
  %17 = tail call ptr @av_frame_clone(ptr noundef nonnull %15) #9
  %.not20.not = icmp eq ptr %17, null
  br i1 %.not20.not, label %22, label %18

18:                                               ; preds = %16
  %19 = load ptr, ptr %8, align 8, !tbaa !63
  %20 = load ptr, ptr %19, align 8, !tbaa !36
  %21 = tail call i32 @filter_frame(ptr noundef %20, ptr noundef nonnull %17)
  store i32 1, ptr %5, align 4, !tbaa !62
  br label %22

22:                                               ; preds = %18, %16, %7, %13, %1
  %.0 = phi i32 [ -541478725, %1 ], [ -541478725, %13 ], [ %11, %7 ], [ %21, %18 ], [ -12, %16 ]
  ret i32 %.0
}